; Function Attrs: mustprogress nounwind uwtable
define dso_local void @_ZN4node7tracing15NodeTraceWriter11WriteSuffixEv(ptr noundef nonnull align 8 dereferenceable(1409) %this) local_unnamed_addr #0 align 2 {
entry:
  %stream_mutex_ = getelementptr inbounds i8, ptr %this, i64 272
  tail call void @uv_mutex_lock(ptr noundef nonnull %stream_mutex_) #12
  %total_traces_ = getelementptr inbounds i8, ptr %this, i64 984
  %0 = load i32, ptr %total_traces_, align 8
  %cmp = icmp sgt i32 %0, 0
  br i1 %cmp, label %if.then, label %if.end4.critedge

if.then:                                          ; preds = %entry
  store i32 524288, ptr %total_traces_, align 8
  tail call void @uv_mutex_unlock(ptr noundef nonnull %stream_mutex_) #12
  %vtable = load ptr, ptr %this, align 8
  %vfn = getelementptr inbounds i8, ptr %vtable, i64 24
  %1 = load ptr, ptr %vfn, align 8
  tail call void %1(ptr noundef nonnull align 8 dereferenceable(1409) %this, i1 noundef zeroext true) #12
  br label %if.end4

if.end4.critedge:                                 ; preds = %entry
  tail call void @uv_mutex_unlock(ptr noundef nonnull %stream_mutex_) #12
  br label %if.end4

if.end4:                                          ; preds = %if.end4.critedge, %if.then
  ret void
}